; Function Attrs: nofree nounwind uwtable
define internal noundef i64 @_scriptOut(ptr noundef readonly captures(none) %0, ptr noundef captures(none) %1, i64 noundef %2) #11 {
  %4 = getelementptr inbounds nuw i8, ptr %0, i64 592
  %5 = load ptr, ptr %4, align 8
  %6 = getelementptr inbounds nuw i8, ptr %5, i64 64
  %7 = load ptr, ptr %6, align 8
  %8 = load ptr, ptr %7, align 8
  %9 = tail call noundef i64 @fwrite(ptr noundef %1, i64 noundef 1, i64 noundef %2, ptr noundef %8)
  %10 = getelementptr inbounds nuw i8, ptr %7, i64 40
  %11 = load i64, ptr %10, align 8
  %12 = add i64 %11, %9
  store i64 %12, ptr %10, align 8
  ret i64 %9
}